target datalayout = "e-m:e-p270:32:32-p271:32:32-p272:64:64-i64:64-i128:128-f80:128-n8:16:32:64-S128"
target triple = "x86_64-pc-linux-gnu"

%struct.dt_variables_params_t = type { ptr, ptr, i32, i32, ptr, i32, i32, ptr }
%struct.dt_variables_data_t = type { ptr, ptr, ptr, ptr, i32, i32, i32, i32, i32, i32, i32, i32, i32, i32, i32, i32, ptr, ptr, ptr, i32, i32, i32, ptr, ptr, ptr, i32, i32, ptr, float, float, float, float, float, float, ptr, ptr, ptr, ptr, ptr, double, double, double, i32, i32 }

; Function Attrs: nounwind uwtable
define void @dt_variables_params_destroy(ptr noundef %0) #0 {
  %2 = alloca ptr, align 8
  store ptr %0, ptr %2, align 8, !tbaa !6
  %3 = load ptr, ptr %2, align 8, !tbaa !6
  %4 = getelementptr inbounds nuw %struct.dt_variables_params_t, ptr %3, i32 0, i32 4
  %5 = load ptr, ptr %4, align 8, !tbaa !15
  %6 = getelementptr inbounds nuw %struct.dt_variables_data_t, ptr %5, i32 0, i32 0
  %7 = load ptr, ptr %6, align 8, !tbaa !139
  %8 = icmp ne ptr %7, null
  br i1 %8, label %9, label %15

9:                                                ; preds = %1
  %10 = load ptr, ptr %2, align 8, !tbaa !6
  %11 = getelementptr inbounds nuw %struct.dt_variables_params_t, ptr %10, i32 0, i32 4
  %12 = load ptr, ptr %11, align 8, !tbaa !15
  %13 = getelementptr inbounds nuw %struct.dt_variables_data_t, ptr %12, i32 0, i32 0
  %14 = load ptr, ptr %13, align 8, !tbaa !139
  call void @g_date_time_unref(ptr noundef %14)
  br label %15

15:                                               ; preds = %9, %1
  %16 = load ptr, ptr %2, align 8, !tbaa !6
  %17 = getelementptr inbounds nuw %struct.dt_variables_params_t, ptr %16, i32 0, i32 4
  %18 = load ptr, ptr %17, align 8, !tbaa !15
  %19 = getelementptr inbounds nuw %struct.dt_variables_data_t, ptr %18, i32 0, i32 1
  %20 = load ptr, ptr %19, align 8, !tbaa !131
  %21 = icmp ne ptr %20, null
  br i1 %21, label %22, label %28

22:                                               ; preds = %15
  %23 = load ptr, ptr %2, align 8, !tbaa !6
  %24 = getelementptr inbounds nuw %struct.dt_variables_params_t, ptr %23, i32 0, i32 4
  %25 = load ptr, ptr %24, align 8, !tbaa !15
  %26 = getelementptr inbounds nuw %struct.dt_variables_data_t, ptr %25, i32 0, i32 1
  %27 = load ptr, ptr %26, align 8, !tbaa !131
  call void @g_date_time_unref(ptr noundef %27)
  br label %28

28:                                               ; preds = %22, %15
  %29 = load ptr, ptr %2, align 8, !tbaa !6
  %30 = getelementptr inbounds nuw %struct.dt_variables_params_t, ptr %29, i32 0, i32 4
  %31 = load ptr, ptr %30, align 8, !tbaa !15
  %32 = getelementptr inbounds nuw %struct.dt_variables_data_t, ptr %31, i32 0, i32 2
  %33 = load ptr, ptr %32, align 8, !tbaa !132
  call void @g_free(ptr noundef %33)
  %34 = load ptr, ptr %2, align 8, !tbaa !6
  %35 = getelementptr inbounds nuw %struct.dt_variables_params_t, ptr %34, i32 0, i32 4
  %36 = load ptr, ptr %35, align 8, !tbaa !15
  %37 = getelementptr inbounds nuw %struct.dt_variables_data_t, ptr %36, i32 0, i32 3
  %38 = load ptr, ptr %37, align 8, !tbaa !133
  call void @g_free(ptr noundef %38)
  %39 = load ptr, ptr %2, align 8, !tbaa !6
  %40 = getelementptr inbounds nuw %struct.dt_variables_params_t, ptr %39, i32 0, i32 4
  %41 = load ptr, ptr %40, align 8, !tbaa !15
  %42 = getelementptr inbounds nuw %struct.dt_variables_data_t, ptr %41, i32 0, i32 24
  %43 = load ptr, ptr %42, align 8, !tbaa !29
  call void @g_free(ptr noundef %43)
  %44 = load ptr, ptr %2, align 8, !tbaa !6
  %45 = getelementptr inbounds nuw %struct.dt_variables_params_t, ptr %44, i32 0, i32 4
  %46 = load ptr, ptr %45, align 8, !tbaa !15
  %47 = getelementptr inbounds nuw %struct.dt_variables_data_t, ptr %46, i32 0, i32 22
  %48 = load ptr, ptr %47, align 8, !tbaa !47
  call void @g_free(ptr noundef %48)
  %49 = load ptr, ptr %2, align 8, !tbaa !6
  %50 = getelementptr inbounds nuw %struct.dt_variables_params_t, ptr %49, i32 0, i32 4
  %51 = load ptr, ptr %50, align 8, !tbaa !15
  %52 = getelementptr inbounds nuw %struct.dt_variables_data_t, ptr %51, i32 0, i32 23
  %53 = load ptr, ptr %52, align 8, !tbaa !48
  call void @g_free(ptr noundef %53)
  %54 = load ptr, ptr %2, align 8, !tbaa !6
  %55 = getelementptr inbounds nuw %struct.dt_variables_params_t, ptr %54, i32 0, i32 4
  %56 = load ptr, ptr %55, align 8, !tbaa !15
  call void @g_free(ptr noundef %56)
  %57 = load ptr, ptr %2, align 8, !tbaa !6
  call void @g_free(ptr noundef %57)
  ret void
}