; Function Attrs: nounwind uwtable
define void @dt_variables_params_destroy(ptr noundef %0) local_unnamed_addr #0 {
  %2 = getelementptr inbounds nuw i8, ptr %0, i64 24
  %3 = load ptr, ptr %2, align 8, !tbaa !11
  %4 = load ptr, ptr %3, align 8, !tbaa !129
  %.not = icmp eq ptr %4, null
  br i1 %.not, label %6, label %5

5:                                                ; preds = %1
  tail call void @g_date_time_unref(ptr noundef nonnull %4) #16
  %.pre = load ptr, ptr %2, align 8, !tbaa !11
  br label %6

6:                                                ; preds = %5, %1
  %7 = phi ptr [ %.pre, %5 ], [ %3, %1 ]
  %8 = getelementptr inbounds nuw i8, ptr %7, i64 8
  %9 = load ptr, ptr %8, align 8, !tbaa !124
  %.not12 = icmp eq ptr %9, null
  br i1 %.not12, label %11, label %10

10:                                               ; preds = %6
  tail call void @g_date_time_unref(ptr noundef nonnull %9) #16
  %.pre13 = load ptr, ptr %2, align 8, !tbaa !11
  br label %11

11:                                               ; preds = %10, %6
  %12 = phi ptr [ %.pre13, %10 ], [ %7, %6 ]
  %13 = getelementptr inbounds nuw i8, ptr %12, i64 16
  %14 = load ptr, ptr %13, align 8, !tbaa !125
  tail call void @g_free(ptr noundef %14) #16
  %15 = load ptr, ptr %2, align 8, !tbaa !11
  %16 = getelementptr inbounds nuw i8, ptr %15, i64 24
  %17 = load ptr, ptr %16, align 8, !tbaa !126
  tail call void @g_free(ptr noundef %17) #16
  %18 = load ptr, ptr %2, align 8, !tbaa !11
  %19 = getelementptr inbounds nuw i8, ptr %18, i64 136
  %20 = load ptr, ptr %19, align 8, !tbaa !88
  tail call void @g_free(ptr noundef %20) #16
  %21 = load ptr, ptr %2, align 8, !tbaa !11
  %22 = getelementptr inbounds nuw i8, ptr %21, i64 120
  %23 = load ptr, ptr %22, align 8, !tbaa !86
  tail call void @g_free(ptr noundef %23) #16
  %24 = load ptr, ptr %2, align 8, !tbaa !11
  %25 = getelementptr inbounds nuw i8, ptr %24, i64 128
  %26 = load ptr, ptr %25, align 8, !tbaa !87
  tail call void @g_free(ptr noundef %26) #16
  %27 = load ptr, ptr %2, align 8, !tbaa !11
  tail call void @g_free(ptr noundef %27) #16
  tail call void @g_free(ptr noundef nonnull %0) #16
  ret void
}